; Function Attrs: nounwind uwtable
define hidden void @zif_phpdbg_clear(ptr noundef readonly captures(none) %0, ptr readnone captures(none) %1) #0 {
  %3 = getelementptr inbounds nuw i8, ptr %0, i64 44
  %4 = load i32, ptr %3, align 4, !tbaa !4
  %.not = icmp eq i32 %4, 0
  br i1 %.not, label %.critedge, label %5, !prof !72

5:                                                ; preds = %2
  tail call void @zend_wrong_parameters_none_error() #27
  %6 = load ptr, ptr getelementptr inbounds nuw (i8, ptr @executor_globals, i64 960), align 8, !tbaa !7
  %7 = icmp ne ptr %6, null
  tail call void @llvm.assume(i1 %7)
  br label %8

.critedge:                                        ; preds = %2
  tail call void @zend_hash_clean(ptr noundef nonnull @phpdbg_globals) #27
  tail call void @zend_hash_clean(ptr noundef nonnull getelementptr inbounds nuw (i8, ptr @phpdbg_globals, i64 56)) #27
  tail call void @zend_hash_clean(ptr noundef nonnull getelementptr inbounds nuw (i8, ptr @phpdbg_globals, i64 112)) #27
  tail call void @zend_hash_clean(ptr noundef nonnull getelementptr inbounds nuw (i8, ptr @phpdbg_globals, i64 392)) #27
  tail call void @zend_hash_clean(ptr noundef nonnull getelementptr inbounds nuw (i8, ptr @phpdbg_globals, i64 448)) #27
  tail call void @zend_hash_clean(ptr noundef nonnull getelementptr inbounds nuw (i8, ptr @phpdbg_globals, i64 504)) #27
  tail call void @zend_hash_clean(ptr noundef nonnull getelementptr inbounds nuw (i8, ptr @phpdbg_globals, i64 168)) #27
  tail call void @zend_hash_clean(ptr noundef nonnull getelementptr inbounds nuw (i8, ptr @phpdbg_globals, i64 224)) #27
  tail call void @zend_hash_clean(ptr noundef nonnull getelementptr inbounds nuw (i8, ptr @phpdbg_globals, i64 560)) #27
  tail call void @zend_hash_clean(ptr noundef nonnull getelementptr inbounds nuw (i8, ptr @phpdbg_globals, i64 280)) #27
  br label %8

8:                                                ; preds = %.critedge, %5
  ret void
}